; Function Attrs: mustprogress nounwind uwtable
define hidden void @_ZN22static_stub_Relocation12pack_data_toEP11CodeSection(ptr nocapture noundef nonnull align 8 dereferenceable(32) %0, ptr nocapture noundef %1) unnamed_addr #0 align 2 {
  %3 = getelementptr inbounds i8, ptr %1, i64 40
  %4 = load ptr, ptr %3, align 8
  %5 = getelementptr inbounds i8, ptr %1, i64 80
  %6 = load ptr, ptr %5, align 8
  %7 = getelementptr inbounds i8, ptr %6, i64 96
  %8 = getelementptr inbounds i8, ptr %0, i64 24
  %9 = load ptr, ptr %8, align 8
  %10 = icmp eq ptr %9, null
  %.pre12 = load ptr, ptr %7, align 8
  br i1 %10, label %_ZN10Relocation17normalize_addressERPhPK11CodeSectionb.exit, label %11

11:                                               ; preds = %2
  %.not.i.i = icmp ule ptr %.pre12, %9
  %12 = getelementptr inbounds i8, ptr %6, i64 120
  %13 = load ptr, ptr %12, align 8
  %14 = icmp uge ptr %13, %9
  %15 = select i1 %.not.i.i, i1 %14, i1 false
  br i1 %15, label %_ZN10Relocation17normalize_addressERPhPK11CodeSectionb.exit, label %16

16:                                               ; preds = %11
  %17 = getelementptr inbounds i8, ptr %6, i64 176
  %18 = load ptr, ptr %17, align 8
  %.not20.i.i = icmp eq ptr %18, null
  br i1 %.not20.i.i, label %._crit_edge.i.i, label %.lr.ph.i.i

.lr.ph.i.i:                                       ; preds = %16, %20
  %.021.i.i = phi ptr [ %22, %20 ], [ %18, %16 ]
  %19 = tail call noundef i32 @_ZNK10CodeBuffer16section_index_ofEPh(ptr noundef nonnull align 8 dereferenceable(448) %.021.i.i, ptr noundef nonnull %9) #19
  %.not15.i.i = icmp eq i32 %19, -1
  br i1 %.not15.i.i, label %20, label %_ZN10Relocation12new_addr_forEPhPK10CodeBufferPS1_.exit.i

20:                                               ; preds = %.lr.ph.i.i
  %21 = getelementptr inbounds i8, ptr %.021.i.i, i64 272
  %22 = load ptr, ptr %21, align 8
  %.not.i10.i = icmp eq ptr %22, null
  br i1 %.not.i10.i, label %._crit_edge.i.i, label %.lr.ph.i.i, !llvm.loop !62

._crit_edge.i.i:                                  ; preds = %20, %16
  %23 = load ptr, ptr @g_assert_poison, align 8
  store i8 88, ptr %23, align 1
  tail call void (ptr, i32, ptr, ptr, ...) @_Z15report_vm_errorPKciS0_S0_z(ptr noundef nonnull @.str, i32 noundef 345, ptr noundef nonnull @.str.10, ptr noundef nonnull @.str.11) #20
  unreachable

_ZN10Relocation12new_addr_forEPhPK10CodeBufferPS1_.exit.i: ; preds = %.lr.ph.i.i
  %24 = getelementptr inbounds i8, ptr %.021.i.i, i64 8
  %25 = sext i32 %19 to i64
  %26 = getelementptr inbounds %class.CodeSection, ptr %24, i64 %25
  %27 = load ptr, ptr %26, align 8
  %28 = getelementptr inbounds i8, ptr %18, i64 8
  %29 = getelementptr inbounds %class.CodeSection, ptr %28, i64 %25
  %30 = load ptr, ptr %29, align 8
  %31 = ptrtoint ptr %9 to i64
  %32 = ptrtoint ptr %27 to i64
  %33 = sub i64 %31, %32
  %34 = getelementptr inbounds i8, ptr %30, i64 %33
  store ptr %34, ptr %8, align 8
  %.pre = load ptr, ptr %7, align 8
  br label %_ZN10Relocation17normalize_addressERPhPK11CodeSectionb.exit

_ZN10Relocation17normalize_addressERPhPK11CodeSectionb.exit: ; preds = %2, %11, %_ZN10Relocation12new_addr_forEPhPK10CodeBufferPS1_.exit.i
  %35 = phi ptr [ %.pre12, %2 ], [ %.pre12, %11 ], [ %.pre, %_ZN10Relocation12new_addr_forEPhPK10CodeBufferPS1_.exit.i ]
  %36 = phi ptr [ null, %2 ], [ %9, %11 ], [ %34, %_ZN10Relocation12new_addr_forEPhPK10CodeBufferPS1_.exit.i ]
  %37 = ptrtoint ptr %36 to i64
  %38 = ptrtoint ptr %35 to i64
  %.neg.i = sub i64 %38, %37
  %.neg3.i = trunc i64 %.neg.i to i32
  %.not.i = icmp eq i32 %.neg3.i, 0
  br i1 %.not.i, label %_ZN10Relocation13pack_1_int_toEPsi.exit, label %39

39:                                               ; preds = %_ZN10Relocation17normalize_addressERPhPK11CodeSectionb.exit
  %40 = add i32 %.neg3.i, 32768
  %41 = icmp ult i32 %40, 65536
  br i1 %41, label %42, label %44

42:                                               ; preds = %39
  %43 = getelementptr inbounds i8, ptr %4, i64 2
  br label %_ZN10Relocation11add_var_intEPsi.exit.i

44:                                               ; preds = %39
  %45 = lshr i32 %.neg3.i, 16
  %46 = getelementptr inbounds i8, ptr %4, i64 2
  %47 = trunc i64 %.neg.i to i16
  %48 = getelementptr inbounds i8, ptr %4, i64 4
  store i16 %47, ptr %46, align 2
  br label %_ZN10Relocation11add_var_intEPsi.exit.i

_ZN10Relocation11add_var_intEPsi.exit.i:          ; preds = %44, %42
  %.sink.in.i.i = phi i32 [ %.neg3.i, %42 ], [ %45, %44 ]
  %.0.i.i = phi ptr [ %43, %42 ], [ %48, %44 ]
  %.sink.i.i = trunc i32 %.sink.in.i.i to i16
  store i16 %.sink.i.i, ptr %4, align 2
  br label %_ZN10Relocation13pack_1_int_toEPsi.exit

_ZN10Relocation13pack_1_int_toEPsi.exit:          ; preds = %_ZN10Relocation17normalize_addressERPhPK11CodeSectionb.exit, %_ZN10Relocation11add_var_intEPsi.exit.i
  %.0.i = phi ptr [ %.0.i.i, %_ZN10Relocation11add_var_intEPsi.exit.i ], [ %4, %_ZN10Relocation17normalize_addressERPhPK11CodeSectionb.exit ]
  store ptr %.0.i, ptr %3, align 8
  ret void
}